target datalayout = "e-m:e-p270:32:32-p271:32:32-p272:64:64-i64:64-i128:128-f80:128-n8:16:32:64-S128"
target triple = "x86_64-pc-linux-gnu"

%struct.strbuf = type { i64, i64, ptr }
%struct.object_id = type { [32 x i8], i32 }
%struct.repository = type { ptr, ptr, ptr, ptr, ptr, %struct.strmap, %struct.strmap, %struct.repo_path_cache, ptr, ptr, ptr, ptr, %struct.repo_settings, ptr, ptr, ptr, ptr, ptr, ptr, i32, i32, i32, ptr, ptr, i32, i32, i8 }
%struct.strmap = type { %struct.hashmap, ptr, i8 }
%struct.hashmap = type { ptr, ptr, ptr, i32, i32, i32, i32, i8 }
%struct.repo_path_cache = type { ptr, ptr, ptr, ptr, ptr, ptr, ptr }
%struct.repo_settings = type { i32, i32, i32, i32, i32, i32, i32, i32, i32, i32, i32, i32, ptr, i32, i32, i32, i32, i32, i32, i32, i64, i64, i64 }
%struct.cache_time = type { i32, i32 }
%struct.stat_data = type { %struct.cache_time, %struct.cache_time, i32, i32, i32, i32, i32 }
%struct.dir_struct = type { i32, i32, i32, ptr, ptr, ptr, ptr, %struct.dir_struct_internal }
%struct.dir_struct_internal = type { i32, i32, [3 x %struct.exclude_list_group], ptr, ptr, %struct.strbuf, %struct.oid_stat, %struct.oid_stat, i32, i32, i32 }
%struct.exclude_list_group = type { i32, i32, ptr }
%struct.oid_stat = type { %struct.stat_data, %struct.object_id, i32 }
%struct.dir_entry = type { i32, [0 x i8] }

@the_repository = external global ptr, align 8

; Function Attrs: inlinehint nounwind uwtable
define internal i64 @strbuf_avail(ptr noundef %0) #5 {
  %2 = alloca ptr, align 8
  store ptr %0, ptr %2, align 8, !tbaa !127
  %3 = load ptr, ptr %2, align 8, !tbaa !127
  %4 = getelementptr inbounds nuw %struct.strbuf, ptr %3, i32 0, i32 0
  %5 = load i64, ptr %4, align 8, !tbaa !213
  %6 = icmp ne i64 %5, 0
  br i1 %6, label %7, label %16

7:                                                ; preds = %1
  %8 = load ptr, ptr %2, align 8, !tbaa !127
  %9 = getelementptr inbounds nuw %struct.strbuf, ptr %8, i32 0, i32 0
  %10 = load i64, ptr %9, align 8, !tbaa !213
  %11 = load ptr, ptr %2, align 8, !tbaa !127
  %12 = getelementptr inbounds nuw %struct.strbuf, ptr %11, i32 0, i32 1
  %13 = load i64, ptr %12, align 8, !tbaa !114
  %14 = sub i64 %10, %13
  %15 = sub i64 %14, 1
  br label %17

16:                                               ; preds = %1
  br label %17

17:                                               ; preds = %16, %7
  %18 = phi i64 [ %15, %7 ], [ 0, %16 ]
  ret i64 %18
}

; Function Attrs: inlinehint nounwind uwtable
define internal void @strbuf_addch(ptr noundef %0, i32 noundef %1) #5 {
  %3 = alloca ptr, align 8
  %4 = alloca i32, align 4
  store ptr %0, ptr %3, align 8, !tbaa !127
  store i32 %1, ptr %4, align 4, !tbaa !4
  %5 = load ptr, ptr %3, align 8, !tbaa !127
  %6 = call i64 @strbuf_avail(ptr noundef %5)
  %7 = icmp ne i64 %6, 0
  br i1 %7, label %10, label %8

8:                                                ; preds = %2
  %9 = load ptr, ptr %3, align 8, !tbaa !127
  call void @strbuf_grow(ptr noundef %9, i64 noundef 1)
  br label %10

10:                                               ; preds = %8, %2
  %11 = load i32, ptr %4, align 4, !tbaa !4
  %12 = trunc i32 %11 to i8
  %13 = load ptr, ptr %3, align 8, !tbaa !127
  %14 = getelementptr inbounds nuw %struct.strbuf, ptr %13, i32 0, i32 2
  %15 = load ptr, ptr %14, align 8, !tbaa !112
  %16 = load ptr, ptr %3, align 8, !tbaa !127
  %17 = getelementptr inbounds nuw %struct.strbuf, ptr %16, i32 0, i32 1
  %18 = load i64, ptr %17, align 8, !tbaa !114
  %19 = add i64 %18, 1
  store i64 %19, ptr %17, align 8, !tbaa !114
  %20 = getelementptr inbounds nuw i8, ptr %15, i64 %18
  store i8 %12, ptr %20, align 1, !tbaa !58
  %21 = load ptr, ptr %3, align 8, !tbaa !127
  %22 = getelementptr inbounds nuw %struct.strbuf, ptr %21, i32 0, i32 2
  %23 = load ptr, ptr %22, align 8, !tbaa !112
  %24 = load ptr, ptr %3, align 8, !tbaa !127
  %25 = getelementptr inbounds nuw %struct.strbuf, ptr %24, i32 0, i32 1
  %26 = load i64, ptr %25, align 8, !tbaa !114
  %27 = getelementptr inbounds nuw i8, ptr %23, i64 %26
  store i8 0, ptr %27, align 1, !tbaa !58
  ret void
}

; Function Attrs: inlinehint nounwind uwtable
define internal void @strbuf_addstr(ptr noundef %0, ptr noundef %1) #5 {
  %3 = alloca ptr, align 8
  %4 = alloca ptr, align 8
  store ptr %0, ptr %3, align 8, !tbaa !127
  store ptr %1, ptr %4, align 8, !tbaa !11
  %5 = load ptr, ptr %3, align 8, !tbaa !127
  %6 = load ptr, ptr %4, align 8, !tbaa !11
  %7 = load ptr, ptr %4, align 8, !tbaa !11
  %8 = call i64 @strlen(ptr noundef %7) #11
  call void @strbuf_add(ptr noundef %5, ptr noundef %6, i64 noundef %8)
  ret void
}

; Function Attrs: nounwind uwtable
define internal i32 @get_untracked_files(ptr noundef %0, i32 noundef %1, ptr noundef %2) #0 {
  %4 = alloca ptr, align 8
  %5 = alloca i32, align 4
  %6 = alloca ptr, align 8
  %7 = alloca i32, align 4
  %8 = alloca i32, align 4
  %9 = alloca %struct.dir_struct, align 8
  %10 = alloca ptr, align 8
  store ptr %0, ptr %4, align 8, !tbaa !189
  store i32 %1, ptr %5, align 4, !tbaa !4
  store ptr %2, ptr %6, align 8, !tbaa !127
  call void @llvm.lifetime.start.p0(i64 4, ptr %7) #9
  call void @llvm.lifetime.start.p0(i64 4, ptr %8) #9
  store i32 0, ptr %8, align 4, !tbaa !4
  call void @llvm.lifetime.start.p0(i64 312, ptr %9) #9
  call void @llvm.memset.p0.i64(ptr align 8 %9, i8 0, i64 312, i1 false)
  %11 = load i32, ptr %5, align 4, !tbaa !4
  %12 = icmp ne i32 %11, 2
  br i1 %12, label %13, label %14

13:                                               ; preds = %3
  call void @setup_standard_excludes(ptr noundef %9)
  br label %14

14:                                               ; preds = %13, %3
  %15 = load ptr, ptr @the_repository, align 8, !tbaa !13
  %16 = getelementptr inbounds nuw %struct.repository, ptr %15, i32 0, i32 15
  %17 = load ptr, ptr %16, align 8, !tbaa !115
  %18 = load ptr, ptr %4, align 8, !tbaa !189
  %19 = call i32 @fill_directory(ptr noundef %9, ptr noundef %17, ptr noundef %18)
  store i32 0, ptr %7, align 4, !tbaa !4
  br label %20

20:                                               ; preds = %39, %14
  %21 = load i32, ptr %7, align 4, !tbaa !4
  %22 = getelementptr inbounds nuw %struct.dir_struct, ptr %9, i32 0, i32 1
  %23 = load i32, ptr %22, align 4, !tbaa !201
  %24 = icmp slt i32 %21, %23
  br i1 %24, label %25, label %42

25:                                               ; preds = %20
  call void @llvm.lifetime.start.p0(i64 8, ptr %10) #9
  %26 = getelementptr inbounds nuw %struct.dir_struct, ptr %9, i32 0, i32 3
  %27 = load ptr, ptr %26, align 8, !tbaa !209
  %28 = load i32, ptr %7, align 4, !tbaa !4
  %29 = sext i32 %28 to i64
  %30 = getelementptr inbounds ptr, ptr %27, i64 %29
  %31 = load ptr, ptr %30, align 8, !tbaa !210
  store ptr %31, ptr %10, align 8, !tbaa !210
  %32 = load i32, ptr %8, align 4, !tbaa !4
  %33 = add nsw i32 %32, 1
  store i32 %33, ptr %8, align 4, !tbaa !4
  %34 = load ptr, ptr %6, align 8, !tbaa !127
  %35 = load ptr, ptr %10, align 8, !tbaa !210
  %36 = getelementptr inbounds nuw %struct.dir_entry, ptr %35, i32 0, i32 1
  %37 = getelementptr inbounds [0 x i8], ptr %36, i64 0, i64 0
  call void @strbuf_addstr(ptr noundef %34, ptr noundef %37)
  %38 = load ptr, ptr %6, align 8, !tbaa !127
  call void @strbuf_addch(ptr noundef %38, i32 noundef 0)
  call void @llvm.lifetime.end.p0(i64 8, ptr %10) #9
  br label %39

39:                                               ; preds = %25
  %40 = load i32, ptr %7, align 4, !tbaa !4
  %41 = add nsw i32 %40, 1
  store i32 %41, ptr %7, align 4, !tbaa !4
  br label %20, !llvm.loop !212

42:                                               ; preds = %20
  call void @dir_clear(ptr noundef %9)
  %43 = load i32, ptr %8, align 4, !tbaa !4
  call void @llvm.lifetime.end.p0(i64 312, ptr %9) #9
  call void @llvm.lifetime.end.p0(i64 4, ptr %8) #9
  call void @llvm.lifetime.end.p0(i64 4, ptr %7) #9
  ret i32 %43
}

; Function Attrs: nounwind uwtable
define internal i32 @check_changes(ptr noundef %0, i32 noundef %1, ptr noundef %2) #0 {
  %4 = alloca ptr, align 8
  %5 = alloca i32, align 4
  %6 = alloca ptr, align 8
  %7 = alloca i32, align 4
  store ptr %0, ptr %4, align 8, !tbaa !189
  store i32 %1, ptr %5, align 4, !tbaa !4
  store ptr %2, ptr %6, align 8, !tbaa !127
  call void @llvm.lifetime.start.p0(i64 4, ptr %7) #9
  store i32 0, ptr %7, align 4, !tbaa !4
  %8 = load ptr, ptr %4, align 8, !tbaa !189
  %9 = call i32 @check_changes_tracked_files(ptr noundef %8)
  %10 = icmp ne i32 %9, 0
  br i1 %10, label %11, label %12

11:                                               ; preds = %3
  store i32 1, ptr %7, align 4, !tbaa !4
  br label %12

12:                                               ; preds = %11, %3
  %13 = load i32, ptr %5, align 4, !tbaa !4
  %14 = icmp ne i32 %13, 0
  br i1 %14, label %15, label %22

15:                                               ; preds = %12
  %16 = load ptr, ptr %4, align 8, !tbaa !189
  %17 = load i32, ptr %5, align 4, !tbaa !4
  %18 = load ptr, ptr %6, align 8, !tbaa !127
  %19 = call i32 @get_untracked_files(ptr noundef %16, i32 noundef %17, ptr noundef %18)
  %20 = icmp ne i32 %19, 0
  br i1 %20, label %21, label %22

21:                                               ; preds = %15
  store i32 1, ptr %7, align 4, !tbaa !4
  br label %22

22:                                               ; preds = %21, %15, %12
  %23 = load i32, ptr %7, align 4, !tbaa !4
  call void @llvm.lifetime.end.p0(i64 4, ptr %7) #9
  ret i32 %23
}