; Function Attrs: nounwind uwtable
define internal fastcc range(i32 0, 2) i32 @check_changes(ptr noundef nonnull %0, i32 noundef %1, ptr noundef nonnull %2) unnamed_addr #0 {
  %4 = alloca %struct.dir_struct, align 8
  %5 = tail call fastcc i32 @check_changes_tracked_files(ptr noundef %0)
  %.not = icmp ne i32 %5, 0
  %.not6 = icmp eq i32 %1, 0
  br i1 %.not6, label %38, label %6

6:                                                ; preds = %3
  call void @llvm.lifetime.start.p0(i64 312, ptr nonnull %4) #15
  call void @llvm.memset.p0.i64(ptr noundef nonnull align 8 dereferenceable(312) %4, i8 0, i64 312, i1 false)
  %.not.i = icmp eq i32 %1, 2
  br i1 %.not.i, label %8, label %7

7:                                                ; preds = %6
  call void @setup_standard_excludes(ptr noundef nonnull %4) #15
  br label %8

8:                                                ; preds = %7, %6
  %9 = load ptr, ptr @the_repository, align 8, !tbaa !18
  %10 = getelementptr inbounds nuw i8, ptr %9, i64 384
  %11 = load ptr, ptr %10, align 8, !tbaa !119
  %12 = call i32 @fill_directory(ptr noundef nonnull %4, ptr noundef %11, ptr noundef nonnull %0) #15
  %13 = getelementptr inbounds nuw i8, ptr %4, i64 4
  %14 = load i32, ptr %13, align 4, !tbaa !173
  %15 = icmp sgt i32 %14, 0
  br i1 %15, label %.lr.ph.i, label %get_untracked_files.exit.thread

get_untracked_files.exit.thread:                  ; preds = %8
  call void @dir_clear(ptr noundef nonnull %4) #15
  call void @llvm.lifetime.end.p0(i64 312, ptr nonnull %4) #15
  br label %37

.lr.ph.i:                                         ; preds = %8
  %16 = getelementptr inbounds nuw i8, ptr %4, i64 16
  %17 = getelementptr inbounds nuw i8, ptr %2, i64 8
  %18 = getelementptr inbounds nuw i8, ptr %2, i64 16
  br label %19

19:                                               ; preds = %strbuf_addch.exit.i, %.lr.ph.i
  %indvars.iv.i = phi i64 [ 0, %.lr.ph.i ], [ %indvars.iv.next.i, %strbuf_addch.exit.i ]
  %20 = load ptr, ptr %16, align 8, !tbaa !181
  %21 = getelementptr inbounds nuw ptr, ptr %20, i64 %indvars.iv.i
  %22 = load ptr, ptr %21, align 8, !tbaa !182
  %indvars.iv.next.i = add nuw nsw i64 %indvars.iv.i, 1
  %23 = getelementptr inbounds nuw i8, ptr %22, i64 4
  %24 = call i64 @strlen(ptr noundef nonnull dereferenceable(1) %23) #17
  call void @strbuf_add(ptr noundef nonnull %2, ptr noundef nonnull %23, i64 noundef %24) #15
  %25 = load i64, ptr %2, align 8, !tbaa !184
  %.not.i.i.i = icmp eq i64 %25, 0
  br i1 %.not.i.i.i, label %strbuf_avail.exit.thread.i.i, label %strbuf_avail.exit.i.i

strbuf_avail.exit.i.i:                            ; preds = %19
  %26 = load i64, ptr %17, align 8, !tbaa !132
  %.neg.i.i = add i64 %26, 1
  %.not.i.i = icmp eq i64 %25, %.neg.i.i
  br i1 %.not.i.i, label %strbuf_avail.exit.thread.i.i, label %strbuf_addch.exit.i

strbuf_avail.exit.thread.i.i:                     ; preds = %strbuf_avail.exit.i.i, %19
  call void @strbuf_grow(ptr noundef nonnull %2, i64 noundef 1) #15
  %.pre.i.i = load i64, ptr %17, align 8, !tbaa !132
  %.pre7.i.i = add i64 %.pre.i.i, 1
  br label %strbuf_addch.exit.i

strbuf_addch.exit.i:                              ; preds = %strbuf_avail.exit.thread.i.i, %strbuf_avail.exit.i.i
  %.pre-phi.i.i = phi i64 [ %.pre7.i.i, %strbuf_avail.exit.thread.i.i ], [ %.neg.i.i, %strbuf_avail.exit.i.i ]
  %27 = phi i64 [ %.pre.i.i, %strbuf_avail.exit.thread.i.i ], [ %26, %strbuf_avail.exit.i.i ]
  %28 = load ptr, ptr %18, align 8, !tbaa !131
  store i64 %.pre-phi.i.i, ptr %17, align 8, !tbaa !132
  %29 = getelementptr inbounds nuw i8, ptr %28, i64 %27
  store i8 0, ptr %29, align 1, !tbaa !55
  %30 = load ptr, ptr %18, align 8, !tbaa !131
  %31 = load i64, ptr %17, align 8, !tbaa !132
  %32 = getelementptr inbounds nuw i8, ptr %30, i64 %31
  store i8 0, ptr %32, align 1, !tbaa !55
  %33 = load i32, ptr %13, align 4, !tbaa !173
  %34 = sext i32 %33 to i64
  %35 = icmp slt i64 %indvars.iv.next.i, %34
  br i1 %35, label %19, label %get_untracked_files.exit, !llvm.loop !185

get_untracked_files.exit:                         ; preds = %strbuf_addch.exit.i
  call void @dir_clear(ptr noundef nonnull %4) #15
  call void @llvm.lifetime.end.p0(i64 312, ptr nonnull %4) #15
  %36 = and i64 %indvars.iv.next.i, 4294967295
  %.not7 = icmp eq i64 %36, 0
  br i1 %.not7, label %37, label %38

37:                                               ; preds = %get_untracked_files.exit.thread, %get_untracked_files.exit
  br label %38

38:                                               ; preds = %37, %get_untracked_files.exit, %3
  %.1.shrunk = phi i1 [ %.not, %3 ], [ %.not, %37 ], [ true, %get_untracked_files.exit ]
  %.1 = zext i1 %.1.shrunk to i32
  ret i32 %.1
}